; Function Attrs: nounwind uwtable
define dso_local i64 @plainto_tsquery_byid(ptr noundef readonly captures(none) %0) #0 {
  %2 = alloca %struct.MorphOpaque, align 4
  %3 = getelementptr inbounds nuw i8, ptr %0, i64 32
  %4 = getelementptr inbounds nuw i8, ptr %0, i64 48
  %5 = load i64, ptr %4, align 8
  %6 = inttoptr i64 %5 to ptr
  %7 = tail call ptr @pg_detoast_datum_packed(ptr noundef %6) #8
  call void @llvm.lifetime.start.p0(i64 8, ptr nonnull %2) #8
  %8 = load i64, ptr %3, align 8
  %9 = trunc i64 %8 to i32
  store i32 %9, ptr %2, align 4
  %10 = getelementptr inbounds nuw i8, ptr %2, i64 4
  store i32 2, ptr %10, align 4
  %11 = tail call ptr @text_to_cstring(ptr noundef %7) #8
  %12 = ptrtoint ptr %2 to i64
  %13 = call ptr @parse_tsquery(ptr noundef %11, ptr noundef nonnull @pushval_morph, i64 noundef %12, i32 noundef 1, ptr noundef null) #8
  %14 = ptrtoint ptr %13 to i64
  call void @llvm.lifetime.end.p0(i64 8, ptr nonnull %2) #8
  ret i64 %14
}